target datalayout = "e-m:e-p270:32:32-p271:32:32-p272:64:64-i64:64-i128:128-f80:128-n8:16:32:64-S128"
target triple = "x86_64-pc-linux-gnu"

%struct.AVFilterContext = type { ptr, ptr, ptr, ptr, ptr, i32, ptr, ptr, i32, ptr, ptr, i32, i32, ptr, ptr, ptr, ptr, i32, ptr, i32, i32 }
%struct.ColorSpaceContext = type { ptr, %struct.ColorSpaceDSPContext, i32, i32, i32, i32, i32, i32, i32, i32, i32, i32, i32, i32, i32, i32, i32, i32, i32, i32, i32, i32, i32, i32, i32, [3 x ptr], i64, i32, [3 x [2 x ptr]], [3 x [2 x ptr]], ptr, ptr, i32, [4 x i8], [3 x [3 x [8 x i16]]], ptr, ptr, i32, ptr, ptr, ptr, ptr, i32, i32, [3 x [3 x [8 x i16]]], [3 x [3 x [8 x i16]]], [3 x [3 x [8 x i16]]], [2 x [8 x i16]], ptr, ptr, ptr, ptr, [3 x [3 x double]], [3 x [3 x double]], i32, i32, i32, i32, i32, [12 x i8] }
%struct.ColorSpaceDSPContext = type { [3 x [3 x ptr]], [3 x [3 x ptr]], [3 x [3 x ptr]], [3 x [3 x [3 x ptr]]], ptr }

; Function Attrs: nounwind uwtable
define internal void @uninit(ptr noundef %0) #1 {
  %2 = alloca ptr, align 8
  %3 = alloca ptr, align 8
  store ptr %0, ptr %2, align 8, !tbaa !4
  call void @llvm.lifetime.start.p0(i64 8, ptr %3) #9
  %4 = load ptr, ptr %2, align 8, !tbaa !4
  %5 = getelementptr inbounds nuw %struct.AVFilterContext, ptr %4, i32 0, i32 9
  %6 = load ptr, ptr %5, align 8, !tbaa !9
  store ptr %6, ptr %3, align 8, !tbaa !22
  %7 = load ptr, ptr %3, align 8, !tbaa !22
  %8 = getelementptr inbounds nuw %struct.ColorSpaceContext, ptr %7, i32 0, i32 25
  %9 = getelementptr inbounds [3 x ptr], ptr %8, i64 0, i64 0
  call void @av_freep(ptr noundef %9)
  %10 = load ptr, ptr %3, align 8, !tbaa !22
  %11 = getelementptr inbounds nuw %struct.ColorSpaceContext, ptr %10, i32 0, i32 25
  %12 = getelementptr inbounds [3 x ptr], ptr %11, i64 0, i64 1
  call void @av_freep(ptr noundef %12)
  %13 = load ptr, ptr %3, align 8, !tbaa !22
  %14 = getelementptr inbounds nuw %struct.ColorSpaceContext, ptr %13, i32 0, i32 25
  %15 = getelementptr inbounds [3 x ptr], ptr %14, i64 0, i64 2
  call void @av_freep(ptr noundef %15)
  %16 = load ptr, ptr %3, align 8, !tbaa !22
  %17 = getelementptr inbounds nuw %struct.ColorSpaceContext, ptr %16, i32 0, i32 27
  store i32 0, ptr %17, align 16, !tbaa !36
  %18 = load ptr, ptr %3, align 8, !tbaa !22
  %19 = getelementptr inbounds nuw %struct.ColorSpaceContext, ptr %18, i32 0, i32 29
  %20 = getelementptr inbounds [3 x [2 x ptr]], ptr %19, i64 0, i64 0
  %21 = getelementptr inbounds [2 x ptr], ptr %20, i64 0, i64 0
  call void @av_freep(ptr noundef %21)
  %22 = load ptr, ptr %3, align 8, !tbaa !22
  %23 = getelementptr inbounds nuw %struct.ColorSpaceContext, ptr %22, i32 0, i32 29
  %24 = getelementptr inbounds [3 x [2 x ptr]], ptr %23, i64 0, i64 0
  %25 = getelementptr inbounds [2 x ptr], ptr %24, i64 0, i64 1
  call void @av_freep(ptr noundef %25)
  %26 = load ptr, ptr %3, align 8, !tbaa !22
  %27 = getelementptr inbounds nuw %struct.ColorSpaceContext, ptr %26, i32 0, i32 29
  %28 = getelementptr inbounds [3 x [2 x ptr]], ptr %27, i64 0, i64 1
  %29 = getelementptr inbounds [2 x ptr], ptr %28, i64 0, i64 0
  call void @av_freep(ptr noundef %29)
  %30 = load ptr, ptr %3, align 8, !tbaa !22
  %31 = getelementptr inbounds nuw %struct.ColorSpaceContext, ptr %30, i32 0, i32 29
  %32 = getelementptr inbounds [3 x [2 x ptr]], ptr %31, i64 0, i64 1
  %33 = getelementptr inbounds [2 x ptr], ptr %32, i64 0, i64 1
  call void @av_freep(ptr noundef %33)
  %34 = load ptr, ptr %3, align 8, !tbaa !22
  %35 = getelementptr inbounds nuw %struct.ColorSpaceContext, ptr %34, i32 0, i32 29
  %36 = getelementptr inbounds [3 x [2 x ptr]], ptr %35, i64 0, i64 2
  %37 = getelementptr inbounds [2 x ptr], ptr %36, i64 0, i64 0
  call void @av_freep(ptr noundef %37)
  %38 = load ptr, ptr %3, align 8, !tbaa !22
  %39 = getelementptr inbounds nuw %struct.ColorSpaceContext, ptr %38, i32 0, i32 29
  %40 = getelementptr inbounds [3 x [2 x ptr]], ptr %39, i64 0, i64 2
  %41 = getelementptr inbounds [2 x ptr], ptr %40, i64 0, i64 1
  call void @av_freep(ptr noundef %41)
  %42 = load ptr, ptr %3, align 8, !tbaa !22
  %43 = getelementptr inbounds nuw %struct.ColorSpaceContext, ptr %42, i32 0, i32 38
  call void @av_freep(ptr noundef %43)
  call void @llvm.lifetime.end.p0(i64 8, ptr %3) #9
  ret void
}