; Function Attrs: nounwind uwtable
define internal void @uninit(ptr noundef readonly captures(none) %0) #1 {
  %2 = getelementptr inbounds nuw i8, ptr %0, i64 72
  %3 = load ptr, ptr %2, align 8, !tbaa !4
  %4 = getelementptr inbounds nuw i8, ptr %3, i64 544
  tail call void @av_freep(ptr noundef nonnull %4) #9
  %5 = getelementptr inbounds nuw i8, ptr %3, i64 552
  tail call void @av_freep(ptr noundef nonnull %5) #9
  %6 = getelementptr inbounds nuw i8, ptr %3, i64 560
  tail call void @av_freep(ptr noundef nonnull %6) #9
  %7 = getelementptr inbounds nuw i8, ptr %3, i64 576
  store i32 0, ptr %7, align 16, !tbaa !32
  %8 = getelementptr inbounds nuw i8, ptr %3, i64 632
  tail call void @av_freep(ptr noundef nonnull %8) #9
  %9 = getelementptr inbounds nuw i8, ptr %3, i64 640
  tail call void @av_freep(ptr noundef nonnull %9) #9
  %10 = getelementptr inbounds nuw i8, ptr %3, i64 648
  tail call void @av_freep(ptr noundef nonnull %10) #9
  %11 = getelementptr inbounds nuw i8, ptr %3, i64 656
  tail call void @av_freep(ptr noundef nonnull %11) #9
  %12 = getelementptr inbounds nuw i8, ptr %3, i64 664
  tail call void @av_freep(ptr noundef nonnull %12) #9
  %13 = getelementptr inbounds nuw i8, ptr %3, i64 672
  tail call void @av_freep(ptr noundef nonnull %13) #9
  %14 = getelementptr inbounds nuw i8, ptr %3, i64 872
  tail call void @av_freep(ptr noundef nonnull %14) #9
  ret void
}